; ModuleID = '52/4024.c'
source_filename = "52/4024.c"
target datalayout = "e-m:e-p270:32:32-p271:32:32-p272:64:64-i64:64-f80:128-n8:16:32:64-S128"
target triple = "x86_64-pc-linux-gnu"

@.str = private unnamed_addr constant [5 x i8] c"%d%d\00", align 1
@.str.1 = private unnamed_addr constant [3 x i8] c"%d\00", align 1
@.str.2 = private unnamed_addr constant [4 x i8] c"%d \00", align 1
@.str.3 = private unnamed_addr constant [2 x i8] c"\0A\00", align 1

; Function Attrs: noinline nounwind uwtable
define dso_local void @main() #0 {
  %1 = alloca i32, align 4
  %2 = alloca i32, align 4
  %3 = alloca i32, align 4
  %4 = alloca [100 x i32], align 16
  %5 = alloca i32*, align 8
  %6 = call i32 (i8*, ...) @__isoc99_scanf(i8* getelementptr inbounds ([5 x i8], [5 x i8]* @.str, i64 0, i64 0), i32* %1, i32* %2)
  store i32 0, i32* %3, align 4
  br label %7

7:                                                ; preds = %16, %0
  %8 = load i32, i32* %3, align 4
  %9 = load i32, i32* %1, align 4
  %10 = icmp slt i32 %8, %9
  br i1 %10, label %11, label %19

11:                                               ; preds = %7
  %12 = load i32, i32* %3, align 4
  %13 = sext i32 %12 to i64
  %14 = getelementptr inbounds [100 x i32], [100 x i32]* %4, i64 0, i64 %13
  %15 = call i32 (i8*, ...) @__isoc99_scanf(i8* getelementptr inbounds ([3 x i8], [3 x i8]* @.str.1, i64 0, i64 0), i32* %14)
  br label %16

16:                                               ; preds = %11
  %17 = load i32, i32* %3, align 4
  %18 = add nsw i32 %17, 1
  store i32 %18, i32* %3, align 4
  br label %7

19:                                               ; preds = %7
  %20 = getelementptr inbounds [100 x i32], [100 x i32]* %4, i64 0, i64 0
  %21 = load i32, i32* %1, align 4
  %22 = load i32, i32* %2, align 4
  call void @move(i32* %20, i32 %21, i32 %22)
  store i32 0, i32* %3, align 4
  br label %23

23:                                               ; preds = %34, %19
  %24 = load i32, i32* %3, align 4
  %25 = load i32, i32* %1, align 4
  %26 = sub nsw i32 %25, 1
  %27 = icmp slt i32 %24, %26
  br i1 %27, label %28, label %37

28:                                               ; preds = %23
  %29 = load i32, i32* %3, align 4
  %30 = sext i32 %29 to i64
  %31 = getelementptr inbounds [100 x i32], [100 x i32]* %4, i64 0, i64 %30
  %32 = load i32, i32* %31, align 4
  %33 = call i32 (i8*, ...) @printf(i8* getelementptr inbounds ([4 x i8], [4 x i8]* @.str.2, i64 0, i64 0), i32 %32)
  br label %34

34:                                               ; preds = %28
  %35 = load i32, i32* %3, align 4
  %36 = add nsw i32 %35, 1
  store i32 %36, i32* %3, align 4
  br label %23

37:                                               ; preds = %23
  %38 = load i32, i32* %1, align 4
  %39 = sub nsw i32 %38, 1
  %40 = sext i32 %39 to i64
  %41 = getelementptr inbounds [100 x i32], [100 x i32]* %4, i64 0, i64 %40
  %42 = load i32, i32* %41, align 4
  %43 = call i32 (i8*, ...) @printf(i8* getelementptr inbounds ([3 x i8], [3 x i8]* @.str.1, i64 0, i64 0), i32 %42)
  %44 = call i32 (i8*, ...) @printf(i8* getelementptr inbounds ([2 x i8], [2 x i8]* @.str.3, i64 0, i64 0))
  ret void
}

declare dso_local i32 @__isoc99_scanf(i8*, ...) #1

; Function Attrs: noinline nounwind uwtable
define dso_local void @move(i32* %0, i32 %1, i32 %2) #0 {
  %4 = alloca i32*, align 8
  %5 = alloca i32, align 4
  %6 = alloca i32, align 4
  %7 = alloca i32*, align 8
  %8 = alloca i32, align 4
  %9 = alloca i32, align 4
  store i32* %0, i32** %4, align 8
  store i32 %1, i32* %5, align 4
  store i32 %2, i32* %6, align 4
  %10 = load i32*, i32** %4, align 8
  %11 = load i32, i32* %5, align 4
  %12 = sub nsw i32 %11, 1
  %13 = sext i32 %12 to i64
  %14 = getelementptr inbounds i32, i32* %10, i64 %13
  %15 = load i32, i32* %14, align 4
  store i32 %15, i32* %9, align 4
  %16 = load i32*, i32** %4, align 8
  %17 = load i32, i32* %5, align 4
  %18 = sext i32 %17 to i64
  %19 = getelementptr inbounds i32, i32* %16, i64 %18
  %20 = getelementptr inbounds i32, i32* %19, i64 -1
  store i32* %20, i32** %7, align 8
  br label %21

21:                                               ; preds = %30, %3
  %22 = load i32*, i32** %7, align 8
  %23 = load i32*, i32** %4, align 8
  %24 = icmp ugt i32* %22, %23
  br i1 %24, label %25, label %33

25:                                               ; preds = %21
  %26 = load i32*, i32** %7, align 8
  %27 = getelementptr inbounds i32, i32* %26, i64 -1
  %28 = load i32, i32* %27, align 4
  %29 = load i32*, i32** %7, align 8
  store i32 %28, i32* %29, align 4
  br label %30

30:                                               ; preds = %25
  %31 = load i32*, i32** %7, align 8
  %32 = getelementptr inbounds i32, i32* %31, i32 -1
  store i32* %32, i32** %7, align 8
  br label %21

33:                                               ; preds = %21
  %34 = load i32, i32* %9, align 4
  %35 = load i32*, i32** %4, align 8
  store i32 %34, i32* %35, align 4
  %36 = load i32, i32* %6, align 4
  %37 = add nsw i32 %36, -1
  store i32 %37, i32* %6, align 4
  %38 = load i32, i32* %6, align 4
  %39 = icmp sgt i32 %38, 0
  br i1 %39, label %40, label %44

40:                                               ; preds = %33
  %41 = load i32*, i32** %4, align 8
  %42 = load i32, i32* %5, align 4
  %43 = load i32, i32* %6, align 4
  call void @move(i32* %41, i32 %42, i32 %43)
  br label %44

44:                                               ; preds = %40, %33
  ret void
}

declare dso_local i32 @printf(i8*, ...) #1


!llvm.module.flags = !{!0}
!llvm.ident = !{!1}

!0 = !{i32 1, !"wchar_size", i32 4}
!1 = !{!"clang version 10.0.0-4ubuntu1 "}
